target datalayout = "e-m:e-p270:32:32-p271:32:32-p272:64:64-i64:64-i128:128-f80:128-n8:16:32:64-S128"
target triple = "x86_64-pc-linux-gnu"

%"class.lean::object_ref" = type { ptr }
%"class.std::initializer_list.3" = type { ptr, i64 }

@_ZN4lean11quot_consts6g_quotE = hidden global ptr null, align 8
@_ZN4lean11quot_consts11g_quot_liftE = hidden global ptr null, align 8
@_ZN4lean11quot_consts10g_quot_indE = hidden global ptr null, align 8
@_ZN4lean11quot_consts9g_quot_mkE = hidden global ptr null, align 8
@.str.10 = private unnamed_addr constant [3 x i8] c"mk\00", align 1
@.str.11 = private unnamed_addr constant [5 x i8] c"Quot\00", align 1
@.str.12 = private unnamed_addr constant [5 x i8] c"lift\00", align 1
@.str.13 = private unnamed_addr constant [4 x i8] c"ind\00", align 1

; Function Attrs: inlinehint mustprogress uwtable
define linkonce_odr hidden void @_ZN4lean15mark_persistentEP11lean_object(ptr noundef %0) #4 comdat {
  %2 = alloca ptr, align 8
  store ptr %0, ptr %2, align 8, !tbaa !47
  %3 = load ptr, ptr %2, align 8, !tbaa !47
  call void @lean_mark_persistent(ptr noundef %3)
  ret void
}

; Function Attrs: mustprogress nounwind uwtable
define linkonce_odr hidden noundef ptr @_ZNK4lean10object_ref3rawEv(ptr noundef nonnull align 8 dereferenceable(8) %0) #7 comdat align 2 {
  %2 = alloca ptr, align 8
  store ptr %0, ptr %2, align 8, !tbaa !48
  %3 = load ptr, ptr %2, align 8
  %4 = getelementptr inbounds nuw %"class.lean::object_ref", ptr %3, i32 0, i32 0
  %5 = load ptr, ptr %4, align 8, !tbaa !50
  ret ptr %5
}

; Function Attrs: mustprogress uwtable
define hidden void @_ZN4lean15initialize_quotEv() #0 personality ptr @__gxx_personality_v0 {
  %1 = alloca %"class.std::initializer_list.3", align 8
  %2 = alloca [1 x ptr], align 8
  %3 = alloca ptr, align 8
  %4 = alloca i32, align 4
  %5 = alloca i1, align 1
  %6 = alloca %"class.std::initializer_list.3", align 8
  %7 = alloca [2 x ptr], align 8
  %8 = alloca i1, align 1
  %9 = alloca %"class.std::initializer_list.3", align 8
  %10 = alloca [2 x ptr], align 8
  %11 = alloca i1, align 1
  %12 = alloca %"class.std::initializer_list.3", align 8
  %13 = alloca [2 x ptr], align 8
  %14 = alloca i1, align 1
  %15 = call noalias noundef nonnull ptr @_Znwm(i64 noundef 8) #15
  store i1 true, ptr %5, align 1
  call void @llvm.lifetime.start.p0(i64 16, ptr %1) #13
  call void @llvm.lifetime.start.p0(i64 8, ptr %2) #13
  store ptr @.str.11, ptr %2, align 8, !tbaa !22
  %16 = getelementptr inbounds nuw %"class.std::initializer_list.3", ptr %1, i32 0, i32 0
  store ptr %2, ptr %16, align 8, !tbaa !42
  %17 = getelementptr inbounds nuw %"class.std::initializer_list.3", ptr %1, i32 0, i32 1
  store i64 1, ptr %17, align 8, !tbaa !46
  invoke void @_ZN4lean4nameC1ERKSt16initializer_listIPKcE(ptr noundef nonnull align 8 dereferenceable(8) %15, ptr noundef nonnull align 8 dereferenceable(16) %1)
          to label %18 unwind label %42

18:                                               ; preds = %0
  store i1 false, ptr %5, align 1
  store ptr %15, ptr @_ZN4lean11quot_consts6g_quotE, align 8, !tbaa !8
  call void @llvm.lifetime.end.p0(i64 8, ptr %2) #13
  call void @llvm.lifetime.end.p0(i64 16, ptr %1) #13
  %19 = load ptr, ptr @_ZN4lean11quot_consts6g_quotE, align 8, !tbaa !8
  %20 = call noundef ptr @_ZNK4lean10object_ref3rawEv(ptr noundef nonnull align 8 dereferenceable(8) %19)
  call void @_ZN4lean15mark_persistentEP11lean_object(ptr noundef %20)
  %21 = call noalias noundef nonnull ptr @_Znwm(i64 noundef 8) #15
  store i1 true, ptr %8, align 1
  call void @llvm.lifetime.start.p0(i64 16, ptr %6) #13
  call void @llvm.lifetime.start.p0(i64 16, ptr %7) #13
  store ptr @.str.11, ptr %7, align 8, !tbaa !22
  %22 = getelementptr inbounds ptr, ptr %7, i64 1
  store ptr @.str.12, ptr %22, align 8, !tbaa !22
  %23 = getelementptr inbounds nuw %"class.std::initializer_list.3", ptr %6, i32 0, i32 0
  store ptr %7, ptr %23, align 8, !tbaa !42
  %24 = getelementptr inbounds nuw %"class.std::initializer_list.3", ptr %6, i32 0, i32 1
  store i64 2, ptr %24, align 8, !tbaa !46
  invoke void @_ZN4lean4nameC1ERKSt16initializer_listIPKcE(ptr noundef nonnull align 8 dereferenceable(8) %21, ptr noundef nonnull align 8 dereferenceable(16) %6)
          to label %25 unwind label %49

25:                                               ; preds = %18
  store i1 false, ptr %8, align 1
  store ptr %21, ptr @_ZN4lean11quot_consts11g_quot_liftE, align 8, !tbaa !8
  call void @llvm.lifetime.end.p0(i64 16, ptr %7) #13
  call void @llvm.lifetime.end.p0(i64 16, ptr %6) #13
  %26 = load ptr, ptr @_ZN4lean11quot_consts11g_quot_liftE, align 8, !tbaa !8
  %27 = call noundef ptr @_ZNK4lean10object_ref3rawEv(ptr noundef nonnull align 8 dereferenceable(8) %26)
  call void @_ZN4lean15mark_persistentEP11lean_object(ptr noundef %27)
  %28 = call noalias noundef nonnull ptr @_Znwm(i64 noundef 8) #15
  store i1 true, ptr %11, align 1
  call void @llvm.lifetime.start.p0(i64 16, ptr %9) #13
  call void @llvm.lifetime.start.p0(i64 16, ptr %10) #13
  store ptr @.str.11, ptr %10, align 8, !tbaa !22
  %29 = getelementptr inbounds ptr, ptr %10, i64 1
  store ptr @.str.13, ptr %29, align 8, !tbaa !22
  %30 = getelementptr inbounds nuw %"class.std::initializer_list.3", ptr %9, i32 0, i32 0
  store ptr %10, ptr %30, align 8, !tbaa !42
  %31 = getelementptr inbounds nuw %"class.std::initializer_list.3", ptr %9, i32 0, i32 1
  store i64 2, ptr %31, align 8, !tbaa !46
  invoke void @_ZN4lean4nameC1ERKSt16initializer_listIPKcE(ptr noundef nonnull align 8 dereferenceable(8) %28, ptr noundef nonnull align 8 dereferenceable(16) %9)
          to label %32 unwind label %56

32:                                               ; preds = %25
  store i1 false, ptr %11, align 1
  store ptr %28, ptr @_ZN4lean11quot_consts10g_quot_indE, align 8, !tbaa !8
  call void @llvm.lifetime.end.p0(i64 16, ptr %10) #13
  call void @llvm.lifetime.end.p0(i64 16, ptr %9) #13
  %33 = load ptr, ptr @_ZN4lean11quot_consts10g_quot_indE, align 8, !tbaa !8
  %34 = call noundef ptr @_ZNK4lean10object_ref3rawEv(ptr noundef nonnull align 8 dereferenceable(8) %33)
  call void @_ZN4lean15mark_persistentEP11lean_object(ptr noundef %34)
  %35 = call noalias noundef nonnull ptr @_Znwm(i64 noundef 8) #15
  store i1 true, ptr %14, align 1
  call void @llvm.lifetime.start.p0(i64 16, ptr %12) #13
  call void @llvm.lifetime.start.p0(i64 16, ptr %13) #13
  store ptr @.str.11, ptr %13, align 8, !tbaa !22
  %36 = getelementptr inbounds ptr, ptr %13, i64 1
  store ptr @.str.10, ptr %36, align 8, !tbaa !22
  %37 = getelementptr inbounds nuw %"class.std::initializer_list.3", ptr %12, i32 0, i32 0
  store ptr %13, ptr %37, align 8, !tbaa !42
  %38 = getelementptr inbounds nuw %"class.std::initializer_list.3", ptr %12, i32 0, i32 1
  store i64 2, ptr %38, align 8, !tbaa !46
  invoke void @_ZN4lean4nameC1ERKSt16initializer_listIPKcE(ptr noundef nonnull align 8 dereferenceable(8) %35, ptr noundef nonnull align 8 dereferenceable(16) %12)
          to label %39 unwind label %63

39:                                               ; preds = %32
  store i1 false, ptr %14, align 1
  store ptr %35, ptr @_ZN4lean11quot_consts9g_quot_mkE, align 8, !tbaa !8
  call void @llvm.lifetime.end.p0(i64 16, ptr %13) #13
  call void @llvm.lifetime.end.p0(i64 16, ptr %12) #13
  %40 = load ptr, ptr @_ZN4lean11quot_consts9g_quot_mkE, align 8, !tbaa !8
  %41 = call noundef ptr @_ZNK4lean10object_ref3rawEv(ptr noundef nonnull align 8 dereferenceable(8) %40)
  call void @_ZN4lean15mark_persistentEP11lean_object(ptr noundef %41)
  ret void

42:                                               ; preds = %0
  %43 = landingpad { ptr, i32 }
          cleanup
  %44 = extractvalue { ptr, i32 } %43, 0
  store ptr %44, ptr %3, align 8
  %45 = extractvalue { ptr, i32 } %43, 1
  store i32 %45, ptr %4, align 4
  call void @llvm.lifetime.end.p0(i64 8, ptr %2) #13
  call void @llvm.lifetime.end.p0(i64 16, ptr %1) #13
  %46 = load i1, ptr %5, align 1
  br i1 %46, label %47, label %48

47:                                               ; preds = %42
  call void @_ZdlPvm(ptr noundef %15, i64 noundef 8) #16
  br label %48

48:                                               ; preds = %47, %42
  br label %70

49:                                               ; preds = %18
  %50 = landingpad { ptr, i32 }
          cleanup
  %51 = extractvalue { ptr, i32 } %50, 0
  store ptr %51, ptr %3, align 8
  %52 = extractvalue { ptr, i32 } %50, 1
  store i32 %52, ptr %4, align 4
  call void @llvm.lifetime.end.p0(i64 16, ptr %7) #13
  call void @llvm.lifetime.end.p0(i64 16, ptr %6) #13
  %53 = load i1, ptr %8, align 1
  br i1 %53, label %54, label %55

54:                                               ; preds = %49
  call void @_ZdlPvm(ptr noundef %21, i64 noundef 8) #16
  br label %55

55:                                               ; preds = %54, %49
  br label %70

56:                                               ; preds = %25
  %57 = landingpad { ptr, i32 }
          cleanup
  %58 = extractvalue { ptr, i32 } %57, 0
  store ptr %58, ptr %3, align 8
  %59 = extractvalue { ptr, i32 } %57, 1
  store i32 %59, ptr %4, align 4
  call void @llvm.lifetime.end.p0(i64 16, ptr %10) #13
  call void @llvm.lifetime.end.p0(i64 16, ptr %9) #13
  %60 = load i1, ptr %11, align 1
  br i1 %60, label %61, label %62

61:                                               ; preds = %56
  call void @_ZdlPvm(ptr noundef %28, i64 noundef 8) #16
  br label %62

62:                                               ; preds = %61, %56
  br label %70

63:                                               ; preds = %32
  %64 = landingpad { ptr, i32 }
          cleanup
  %65 = extractvalue { ptr, i32 } %64, 0
  store ptr %65, ptr %3, align 8
  %66 = extractvalue { ptr, i32 } %64, 1
  store i32 %66, ptr %4, align 4
  call void @llvm.lifetime.end.p0(i64 16, ptr %13) #13
  call void @llvm.lifetime.end.p0(i64 16, ptr %12) #13
  %67 = load i1, ptr %14, align 1
  br i1 %67, label %68, label %69

68:                                               ; preds = %63
  call void @_ZdlPvm(ptr noundef %35, i64 noundef 8) #16
  br label %69

69:                                               ; preds = %68, %63
  br label %70

70:                                               ; preds = %69, %62, %55, %48
  %71 = load ptr, ptr %3, align 8
  %72 = load i32, ptr %4, align 4
  %73 = insertvalue { ptr, i32 } poison, ptr %71, 0
  %74 = insertvalue { ptr, i32 } %73, i32 %72, 1
  resume { ptr, i32 } %74
}