; Function Attrs: mustprogress uwtable
define hidden void @_ZN4lean15initialize_quotEv() local_unnamed_addr #0 personality ptr @__gxx_personality_v0 {
  %1 = alloca %"class.std::initializer_list.3", align 8
  %2 = alloca [1 x ptr], align 8
  %3 = alloca %"class.std::initializer_list.3", align 8
  %4 = alloca [2 x ptr], align 8
  %5 = alloca %"class.std::initializer_list.3", align 8
  %6 = alloca [2 x ptr], align 8
  %7 = alloca %"class.std::initializer_list.3", align 8
  %8 = alloca [2 x ptr], align 8
  %9 = tail call noalias noundef nonnull dereferenceable(8) ptr @_Znwm(i64 noundef 8) #15
  call void @llvm.lifetime.start.p0(i64 16, ptr nonnull %1) #12
  call void @llvm.lifetime.start.p0(i64 8, ptr nonnull %2) #12
  store ptr @.str.11, ptr %2, align 8, !tbaa !20
  store ptr %2, ptr %1, align 8, !tbaa !22
  %10 = getelementptr inbounds nuw i8, ptr %1, i64 8
  store i64 1, ptr %10, align 8, !tbaa !27
  invoke void @_ZN4lean4nameC1ERKSt16initializer_listIPKcE(ptr noundef nonnull align 8 dereferenceable(8) %9, ptr noundef nonnull align 8 dereferenceable(16) %1)
          to label %11 unwind label %28

11:                                               ; preds = %0
  store ptr %9, ptr @_ZN4lean11quot_consts6g_quotE, align 8, !tbaa !17
  call void @llvm.lifetime.end.p0(i64 8, ptr nonnull %2) #12
  call void @llvm.lifetime.end.p0(i64 16, ptr nonnull %1) #12
  %12 = load ptr, ptr %9, align 8, !tbaa !3
  call void @lean_mark_persistent(ptr noundef %12)
  %13 = call noalias noundef nonnull dereferenceable(8) ptr @_Znwm(i64 noundef 8) #15
  call void @llvm.lifetime.start.p0(i64 16, ptr nonnull %3) #12
  call void @llvm.lifetime.start.p0(i64 16, ptr nonnull %4) #12
  store ptr @.str.11, ptr %4, align 8, !tbaa !20
  %14 = getelementptr inbounds nuw i8, ptr %4, i64 8
  store ptr @.str.12, ptr %14, align 8, !tbaa !20
  store ptr %4, ptr %3, align 8, !tbaa !22
  %15 = getelementptr inbounds nuw i8, ptr %3, i64 8
  store i64 2, ptr %15, align 8, !tbaa !27
  invoke void @_ZN4lean4nameC1ERKSt16initializer_listIPKcE(ptr noundef nonnull align 8 dereferenceable(8) %13, ptr noundef nonnull align 8 dereferenceable(16) %3)
          to label %16 unwind label %30

16:                                               ; preds = %11
  store ptr %13, ptr @_ZN4lean11quot_consts11g_quot_liftE, align 8, !tbaa !17
  call void @llvm.lifetime.end.p0(i64 16, ptr nonnull %4) #12
  call void @llvm.lifetime.end.p0(i64 16, ptr nonnull %3) #12
  %17 = load ptr, ptr %13, align 8, !tbaa !3
  call void @lean_mark_persistent(ptr noundef %17)
  %18 = call noalias noundef nonnull dereferenceable(8) ptr @_Znwm(i64 noundef 8) #15
  call void @llvm.lifetime.start.p0(i64 16, ptr nonnull %5) #12
  call void @llvm.lifetime.start.p0(i64 16, ptr nonnull %6) #12
  store ptr @.str.11, ptr %6, align 8, !tbaa !20
  %19 = getelementptr inbounds nuw i8, ptr %6, i64 8
  store ptr @.str.13, ptr %19, align 8, !tbaa !20
  store ptr %6, ptr %5, align 8, !tbaa !22
  %20 = getelementptr inbounds nuw i8, ptr %5, i64 8
  store i64 2, ptr %20, align 8, !tbaa !27
  invoke void @_ZN4lean4nameC1ERKSt16initializer_listIPKcE(ptr noundef nonnull align 8 dereferenceable(8) %18, ptr noundef nonnull align 8 dereferenceable(16) %5)
          to label %21 unwind label %32

21:                                               ; preds = %16
  store ptr %18, ptr @_ZN4lean11quot_consts10g_quot_indE, align 8, !tbaa !17
  call void @llvm.lifetime.end.p0(i64 16, ptr nonnull %6) #12
  call void @llvm.lifetime.end.p0(i64 16, ptr nonnull %5) #12
  %22 = load ptr, ptr %18, align 8, !tbaa !3
  call void @lean_mark_persistent(ptr noundef %22)
  %23 = call noalias noundef nonnull dereferenceable(8) ptr @_Znwm(i64 noundef 8) #15
  call void @llvm.lifetime.start.p0(i64 16, ptr nonnull %7) #12
  call void @llvm.lifetime.start.p0(i64 16, ptr nonnull %8) #12
  store ptr @.str.11, ptr %8, align 8, !tbaa !20
  %24 = getelementptr inbounds nuw i8, ptr %8, i64 8
  store ptr @.str.10, ptr %24, align 8, !tbaa !20
  store ptr %8, ptr %7, align 8, !tbaa !22
  %25 = getelementptr inbounds nuw i8, ptr %7, i64 8
  store i64 2, ptr %25, align 8, !tbaa !27
  invoke void @_ZN4lean4nameC1ERKSt16initializer_listIPKcE(ptr noundef nonnull align 8 dereferenceable(8) %23, ptr noundef nonnull align 8 dereferenceable(16) %7)
          to label %26 unwind label %34

26:                                               ; preds = %21
  store ptr %23, ptr @_ZN4lean11quot_consts9g_quot_mkE, align 8, !tbaa !17
  call void @llvm.lifetime.end.p0(i64 16, ptr nonnull %8) #12
  call void @llvm.lifetime.end.p0(i64 16, ptr nonnull %7) #12
  %27 = load ptr, ptr %23, align 8, !tbaa !3
  call void @lean_mark_persistent(ptr noundef %27)
  ret void

28:                                               ; preds = %0
  %29 = landingpad { ptr, i32 }
          cleanup
  call void @llvm.lifetime.end.p0(i64 8, ptr nonnull %2) #12
  call void @llvm.lifetime.end.p0(i64 16, ptr nonnull %1) #12
  br label %36

30:                                               ; preds = %11
  %31 = landingpad { ptr, i32 }
          cleanup
  call void @llvm.lifetime.end.p0(i64 16, ptr nonnull %4) #12
  call void @llvm.lifetime.end.p0(i64 16, ptr nonnull %3) #12
  br label %36

32:                                               ; preds = %16
  %33 = landingpad { ptr, i32 }
          cleanup
  call void @llvm.lifetime.end.p0(i64 16, ptr nonnull %6) #12
  call void @llvm.lifetime.end.p0(i64 16, ptr nonnull %5) #12
  br label %36

34:                                               ; preds = %21
  %35 = landingpad { ptr, i32 }
          cleanup
  call void @llvm.lifetime.end.p0(i64 16, ptr nonnull %8) #12
  call void @llvm.lifetime.end.p0(i64 16, ptr nonnull %7) #12
  br label %36

36:                                               ; preds = %34, %32, %30, %28
  %.sink = phi ptr [ %23, %34 ], [ %18, %32 ], [ %13, %30 ], [ %9, %28 ]
  %.pn = phi { ptr, i32 } [ %35, %34 ], [ %33, %32 ], [ %31, %30 ], [ %29, %28 ]
  call void @_ZdlPvm(ptr noundef nonnull %.sink, i64 noundef 8) #16
  resume { ptr, i32 } %.pn
}